target datalayout = "e-m:e-p270:32:32-p271:32:32-p272:64:64-i64:64-i128:128-f80:128-n8:16:32:64-S128"
target triple = "x86_64-pc-linux-gnu"

%struct.slurm_conf_t = type { i64, ptr, i16, ptr, ptr, ptr, ptr, ptr, i16, ptr, ptr, ptr, ptr, ptr, ptr, ptr, i16, ptr, ptr, ptr, ptr, i16, ptr, ptr, ptr, i64, ptr, ptr, ptr, ptr, i16, ptr, ptr, i16, i32, ptr, i32, ptr, i32, i32, ptr, ptr, i64, i64, ptr, i16, i16, ptr, i32, i32, ptr, i32, ptr, i32, i16, i16, i16, ptr, i16, i16, ptr, ptr, i32, i16, i16, ptr, i32, i16, ptr, ptr, ptr, ptr, i16, ptr, ptr, ptr, ptr, i32, ptr, ptr, ptr, ptr, i16, i16, ptr, i32, i32, i32, i16, i16, ptr, ptr, i16, ptr, ptr, i32, i32, i32, i32, i32, i64, i32, i32, i16, ptr, ptr, i32, ptr, ptr, ptr, i16, i32, ptr, ptr, i16, ptr, ptr, i32, i16, ptr, ptr, ptr, ptr, i32, i32, i16, i16, i32, ptr, i16, ptr, i32, i32, i32, i32, i32, i32, ptr, i16, ptr, ptr, i32, i16, ptr, i32, i16, i16, ptr, ptr, ptr, i16, ptr, ptr, ptr, ptr, i16, i16, ptr, i16, ptr, i16, ptr, i16, ptr, i16, ptr, ptr, ptr, ptr, i16, ptr, ptr, ptr, i32, ptr, i32, ptr, ptr, i16, ptr, ptr, i32, i16, ptr, ptr, i16, i16, ptr, i16, ptr, ptr, ptr, i32, ptr, i16, i16, ptr, ptr, ptr, ptr, ptr, ptr, ptr, ptr, i16, i32, i16, ptr, ptr, ptr, ptr, i32, ptr, ptr, ptr, i16, ptr, ptr, ptr, i16, ptr, i16, ptr, i16, i16, ptr }
%struct.slurm_msg = type { %struct.sockaddr_storage, ptr, i32, i32, i32, i8, i32, i8, i32, ptr, ptr, i32, ptr, ptr, i16, i8, i16, i16, %struct.forward, ptr, %struct.sockaddr_storage, ptr }
%struct.forward = type { %struct.slurm_node_alias_addrs_t, i16, i16, ptr, i32, i16, i16 }
%struct.slurm_node_alias_addrs_t = type { i64, ptr, ptr, i32, ptr }
%struct.sockaddr_storage = type { i16, [118 x i8], i64 }
%struct.set_debug_flags_msg = type { i64, i64 }
%struct.ret_data_info = type { i16, i32, ptr, ptr }

@slurm_conf = external global %struct.slurm_conf_t, align 8

; Function Attrs: nounwind uwtable
define dso_local i32 @slurm_set_slurmd_debug_flags(ptr noundef %0, i64 noundef %1, i64 noundef %2) #0 {
  %4 = alloca i32, align 4
  %5 = alloca ptr, align 8
  %6 = alloca i64, align 8
  %7 = alloca i64, align 8
  %8 = alloca %struct.slurm_msg, align 8
  %9 = alloca %struct.slurm_msg, align 8
  %10 = alloca %struct.set_debug_flags_msg, align 8
  %11 = alloca ptr, align 8
  %12 = alloca ptr, align 8
  %13 = alloca ptr, align 8
  %14 = alloca i32, align 4
  %15 = alloca i32, align 4
  store ptr %0, ptr %5, align 8
  store i64 %1, ptr %6, align 8
  store i64 %2, ptr %7, align 8
  call void @llvm.lifetime.start.p0(i64 424, ptr %8) #6
  call void @llvm.lifetime.start.p0(i64 424, ptr %9) #6
  call void @llvm.lifetime.start.p0(i64 16, ptr %10) #6
  call void @llvm.lifetime.start.p0(i64 8, ptr %11) #6
  call void @llvm.lifetime.start.p0(i64 8, ptr %12) #6
  call void @llvm.lifetime.start.p0(i64 8, ptr %13) #6
  store ptr null, ptr %13, align 8
  call void @llvm.lifetime.start.p0(i64 4, ptr %14) #6
  store i32 0, ptr %14, align 4
  call void @slurm_msg_t_init(ptr noundef %8)
  call void @slurm_msg_t_init(ptr noundef %9)
  %16 = load i32, ptr getelementptr inbounds nuw (%struct.slurm_conf_t, ptr @slurm_conf, i32 0, i32 175), align 8
  call void @slurm_msg_set_r_uid(ptr noundef %8, i32 noundef %16)
  call void @llvm.memset.p0.i64(ptr align 8 %10, i8 0, i64 16, i1 false)
  %17 = load i64, ptr %7, align 8
  %18 = getelementptr inbounds nuw %struct.set_debug_flags_msg, ptr %10, i32 0, i32 0
  store i64 %17, ptr %18, align 8
  %19 = load i64, ptr %6, align 8
  %20 = getelementptr inbounds nuw %struct.set_debug_flags_msg, ptr %10, i32 0, i32 1
  store i64 %19, ptr %20, align 8
  %21 = getelementptr inbounds nuw %struct.slurm_msg, ptr %8, i32 0, i32 16
  store i16 1014, ptr %21, align 4
  %22 = getelementptr inbounds nuw %struct.slurm_msg, ptr %8, i32 0, i32 13
  store ptr %10, ptr %22, align 8
  %23 = load ptr, ptr %5, align 8
  %24 = call ptr @slurm_send_recv_msgs(ptr noundef %23, ptr noundef %8, i32 noundef 0)
  store ptr %24, ptr %11, align 8
  %25 = icmp ne ptr %24, null
  br i1 %25, label %27, label %26

26:                                               ; preds = %3
  store i32 -1, ptr %4, align 4
  store i32 1, ptr %15, align 4
  br label %58

27:                                               ; preds = %3
  %28 = load ptr, ptr %11, align 8
  %29 = call ptr @list_iterator_create(ptr noundef %28)
  store ptr %29, ptr %12, align 8
  br label %30

30:                                               ; preds = %46, %27
  %31 = load ptr, ptr %12, align 8
  %32 = call ptr @list_next(ptr noundef %31)
  store ptr %32, ptr %13, align 8
  %33 = icmp ne ptr %32, null
  br i1 %33, label %34, label %47

34:                                               ; preds = %30
  %35 = load ptr, ptr %13, align 8
  %36 = getelementptr inbounds nuw %struct.ret_data_info, ptr %35, i32 0, i32 0
  %37 = load i16, ptr %36, align 8
  %38 = zext i16 %37 to i32
  %39 = load ptr, ptr %13, align 8
  %40 = getelementptr inbounds nuw %struct.ret_data_info, ptr %39, i32 0, i32 3
  %41 = load ptr, ptr %40, align 8
  %42 = call i32 @slurm_get_return_code(i32 noundef %38, ptr noundef %41)
  store i32 %42, ptr %14, align 4
  %43 = load i32, ptr %14, align 4
  %44 = icmp ne i32 %43, 0
  br i1 %44, label %45, label %46

45:                                               ; preds = %34
  br label %47

46:                                               ; preds = %34
  br label %30, !llvm.loop !12

47:                                               ; preds = %45, %30
  %48 = load ptr, ptr %12, align 8
  call void @list_iterator_destroy(ptr noundef %48)
  br label %49

49:                                               ; preds = %47
  %50 = load ptr, ptr %11, align 8
  %51 = icmp ne ptr %50, null
  br i1 %51, label %52, label %54

52:                                               ; preds = %49
  %53 = load ptr, ptr %11, align 8
  call void @list_destroy(ptr noundef %53)
  br label %54

54:                                               ; preds = %52, %49
  store ptr null, ptr %11, align 8
  br label %55

55:                                               ; preds = %54
  br label %56

56:                                               ; preds = %55
  %57 = load i32, ptr %14, align 4
  store i32 %57, ptr %4, align 4
  store i32 1, ptr %15, align 4
  br label %58

58:                                               ; preds = %56, %26
  call void @llvm.lifetime.end.p0(i64 4, ptr %14) #6
  call void @llvm.lifetime.end.p0(i64 8, ptr %13) #6
  call void @llvm.lifetime.end.p0(i64 8, ptr %12) #6
  call void @llvm.lifetime.end.p0(i64 8, ptr %11) #6
  call void @llvm.lifetime.end.p0(i64 16, ptr %10) #6
  call void @llvm.lifetime.end.p0(i64 424, ptr %9) #6
  call void @llvm.lifetime.end.p0(i64 424, ptr %8) #6
  %59 = load i32, ptr %4, align 4
  ret i32 %59
}