; Function Attrs: nounwind uwtable
define dso_local i32 @slurm_set_slurmd_debug_flags(ptr noundef %0, i64 noundef %1, i64 noundef %2) local_unnamed_addr #0 {
  %4 = alloca %struct.slurm_msg, align 8
  %5 = alloca %struct.slurm_msg, align 8
  %6 = alloca %struct.set_debug_flags_msg, align 8
  call void @llvm.lifetime.start.p0(i64 424, ptr nonnull %4) #6
  call void @llvm.lifetime.start.p0(i64 424, ptr nonnull %5) #6
  call void @llvm.lifetime.start.p0(i64 16, ptr nonnull %6) #6
  call void @slurm_msg_t_init(ptr noundef nonnull %4) #6
  call void @slurm_msg_t_init(ptr noundef nonnull %5) #6
  %7 = load i32, ptr getelementptr inbounds nuw (i8, ptr @slurm_conf, i64 1168), align 8
  call void @slurm_msg_set_r_uid(ptr noundef nonnull %4, i32 noundef %7) #6
  store i64 %2, ptr %6, align 8
  %8 = getelementptr inbounds nuw i8, ptr %6, i64 8
  store i64 %1, ptr %8, align 8
  %9 = getelementptr inbounds nuw i8, ptr %4, i64 212
  store i16 1014, ptr %9, align 4
  %10 = getelementptr inbounds nuw i8, ptr %4, i64 200
  store ptr %6, ptr %10, align 8
  %11 = call ptr @slurm_send_recv_msgs(ptr noundef %0, ptr noundef nonnull %4, i32 noundef 0) #6
  %.not = icmp eq ptr %11, null
  br i1 %.not, label %23, label %12

12:                                               ; preds = %3
  %13 = call ptr @list_iterator_create(ptr noundef nonnull %11) #6
  br label %14

14:                                               ; preds = %16, %12
  %15 = call ptr @list_next(ptr noundef %13) #6
  %.not17 = icmp eq ptr %15, null
  br i1 %.not17, label %22, label %16

16:                                               ; preds = %14
  %17 = load i16, ptr %15, align 8
  %18 = zext i16 %17 to i32
  %19 = getelementptr inbounds nuw i8, ptr %15, i64 16
  %20 = load ptr, ptr %19, align 8
  %21 = call i32 @slurm_get_return_code(i32 noundef %18, ptr noundef %20) #6
  %.not18 = icmp eq i32 %21, 0
  br i1 %.not18, label %14, label %22, !llvm.loop !12

22:                                               ; preds = %16, %14
  %.1 = phi i32 [ %21, %16 ], [ 0, %14 ]
  call void @list_iterator_destroy(ptr noundef %13) #6
  call void @list_destroy(ptr noundef nonnull %11) #6
  br label %23

23:                                               ; preds = %3, %22
  %.012 = phi i32 [ %.1, %22 ], [ -1, %3 ]
  call void @llvm.lifetime.end.p0(i64 16, ptr nonnull %6) #6
  call void @llvm.lifetime.end.p0(i64 424, ptr nonnull %5) #6
  call void @llvm.lifetime.end.p0(i64 424, ptr nonnull %4) #6
  ret i32 %.012
}